

Microchip MPLAB XC8 Assembler V2.41 build 20230208172133 
                                                                                               Fri Apr 26 19:46:05 2024

Microchip MPLAB XC8 C Compiler v2.41 (Free license) build 20230208172133 Og1 
     1                           	processor	18F46K22
     2                           	fnconf	rparam,??,?,0
     3                           	pagewidth 120
     4                           	opt	flic
     5                           	psect	idataCOMRAM,global,class=CODE,delta=1,noexec
     6                           	psect	cinit,global,reloc=2,class=CODE,delta=1
     7                           	psect	bssCOMRAM,global,class=COMRAM,space=1,delta=1,lowdata,noexec
     8                           	psect	dataCOMRAM,global,class=COMRAM,space=1,delta=1,lowdata,noexec
     9                           	psect	cstackCOMRAM,global,class=COMRAM,space=1,delta=1,lowdata,noexec
    10                           	psect	text0,global,reloc=2,class=CODE,delta=1
    11                           	psect	text1,global,reloc=2,class=CODE,delta=1
    12                           	psect	text2,global,reloc=2,class=CODE,delta=1
    13                           	psect	text3,global,reloc=2,class=CODE,delta=1
    14                           	psect	text4,global,reloc=2,class=CODE,delta=1
    15                           	psect	intcode,global,reloc=2,class=CODE,delta=1
    16                           	psect	text6,global,reloc=2,class=CODE,delta=1
    17                           	psect	intsave_regs,global,class=BIGRAM,space=1,delta=1,noexec
    18                           	psect	rparam,global,class=COMRAM,space=1,delta=1,noexec
    19                           	psect	temp,global,ovrld,common,class=COMRAM,space=1,delta=1
    20                           	psect	idloc,global,abs,ovrld,class=IDLOC,space=5,delta=1,noexec
    21                           	psect	config,global,abs,ovrld,class=CONFIG,space=4,delta=1,noexec
    22   000000                     
    23                           ; Generated 06/04/2022 GMT
    24                           ; 
    25                           ; Copyright © 2022, Microchip Technology Inc. and its subsidiaries ("Microchip")
    26                           ; All rights reserved.
    27                           ; 
    28                           ; This software is developed by Microchip Technology Inc. and its subsidiaries ("Microch
      +                          ip").
    29                           ; 
    30                           ; Redistribution and use in source and binary forms, with or without modification, are
    31                           ; permitted provided that the following conditions are met:
    32                           ; 
    33                           ;     1. Redistributions of source code must retain the above copyright notice, this lis
      +                          t of
    34                           ;        conditions and the following disclaimer.
    35                           ; 
    36                           ;     2. Redistributions in binary form must reproduce the above copyright notice, this 
      +                          list
    37                           ;        of conditions and the following disclaimer in the documentation and/or other
    38                           ;        materials provided with the distribution. Publication is not required when
    39                           ;        this file is used in an embedded application.
    40                           ; 
    41                           ;     3. Microchip's name may not be used to endorse or promote products derived from th
      +                          is
    42                           ;        software without specific prior written permission.
    43                           ; 
    44                           ; THIS SOFTWARE IS PROVIDED BY MICROCHIP "AS IS" AND ANY EXPRESS OR IMPLIED WARRANTIES,
    45                           ; INCLUDING, BUT NOT LIMITED TO, THE IMPLIED WARRANTIES OF MERCHANTABILITY AND FITNESS F
      +                          OR
    46                           ; PURPOSE ARE DISCLAIMED.  IN NO EVENT SHALL MICROCHIP BE LIABLE FOR ANY DIRECT, INDIREC
      +                          T,
    47                           ; INCIDENTAL, SPECIAL, EXEMPLARY, OR CONSEQUENTIAL DAMAGES (INCLUDING BUT NOT LIMITED TO
    48                           ; PROCUREMENT OF SUBSTITUTE GOODS OR SERVICES; LOSS OF USE, DATA OR PROFITS; OR BUSINESS
    49                           ; INTERRUPTION) HOWSOEVER CAUSED AND ON ANY THEORY OF LIABILITY, WHETHER IN CONTRACT, ST
      +                          RICT
    50                           ; LIABILITY, OR TORT (INCLUDING NEGLIGENCE OR OTHERWISE) ARISING IN ANY WAY OUT OF THE U
      +                          SE OF
    51                           ; THIS SOFTWARE, EVEN IF ADVISED OF THE POSSIBILITY OF SUCH DAMAGE.
    52                           ; 
    53                           ; 
    54                           ; Code-generator required, PIC18F46K22 Definitions
    55                           ; 
    56                           ; SFR Addresses
    57   000000                     
    58                           	psect	idataCOMRAM
    59   00049E                     __pidataCOMRAM:
    60                           	callstack 0
    61                           
    62                           ;initializer for _D0
    63   00049E  EF                 	db	239
    64                           
    65                           ;initializer for _D1
    66   00049F  DF                 	db	223
    67                           
    68                           ;initializer for _D2
    69   0004A0  BF                 	db	191
    70                           
    71                           ;initializer for _D3
    72   0004A1  7F                 	db	127
    73                           
    74                           ;initializer for _NUEVE
    75   0004A2  6F                 	db	111
    76                           
    77                           ;initializer for _OCHO
    78   0004A3  7F                 	db	127
    79                           
    80                           ;initializer for _SIETE
    81   0004A4  07                 	db	7
    82                           
    83                           ;initializer for _SEIS
    84   0004A5  7D                 	db	125
    85                           
    86                           ;initializer for _CINCO
    87   0004A6  6D                 	db	109
    88                           
    89                           ;initializer for _CUATRO
    90   0004A7  66                 	db	102
    91                           
    92                           ;initializer for _TRES
    93   0004A8  4F                 	db	79
    94                           
    95                           ;initializer for _DOS
    96   0004A9  5B                 	db	91
    97                           
    98                           ;initializer for _UNO
    99   0004AA  06                 	db	6
   100                           
   101                           ;initializer for _CERO
   102   0004AB  3F                 	db	63
   103   000000                     _ANSELB	set	3897
   104   000000                     _TRISB	set	3987
   105   000000                     _TRISC	set	3988
   106   000000                     _INTCONbits	set	4082
   107   000000                     _TRISD	set	3989
   108   000000                     _IOCB	set	3938
   109   000000                     _PORTB	set	3969
   110   000000                     _LATC	set	3979
   111   000000                     _LATD	set	3980
   112                           
   113                           ; #config settings
   114                           
   115                           	psect	cinit
   116   000430                     __pcinit:
   117                           	callstack 0
   118   000430                     start_initialization:
   119                           	callstack 0
   120   000430                     __initialization:
   121                           	callstack 0
   122                           
   123                           ; Initialize objects allocated to COMRAM (14 bytes)
   124                           ; load TBLPTR registers with __pidataCOMRAM
   125   000430  0E9E               	movlw	low __pidataCOMRAM
   126   000432  6EF6               	movwf	tblptrl,c
   127   000434  0E04               	movlw	high __pidataCOMRAM
   128   000436  6EF7               	movwf	tblptrh,c
   129   000438  0E00               	movlw	low (__pidataCOMRAM shr (0+16))
   130   00043A  6EF8               	movwf	tblptru,c
   131   00043C  EE00  F001         	lfsr	0,__pdataCOMRAM
   132   000440  EE10 F00E          	lfsr	1,14
   133   000444                     copy_data0:
   134   000444  0009               	tblrd		*+
   135   000446  CFF5 FFEE          	movff	tablat,postinc0
   136   00044A  50E5               	movf	postdec1,w,c
   137   00044C  50E1               	movf	fsr1l,w,c
   138   00044E  E1FA               	bnz	copy_data0
   139                           
   140                           ; Clear objects allocated to COMRAM (10 bytes)
   141   000450  EE00  F00F         	lfsr	0,__pbssCOMRAM
   142   000454  0E0A               	movlw	10
   143   000456                     clear_0:
   144   000456  6AEE               	clrf	postinc0,c
   145   000458  06E8               	decf	wreg,f,c
   146   00045A  E1FD               	bnz	clear_0
   147   00045C                     end_of_initialization:
   148                           	callstack 0
   149   00045C                     __end_of__initialization:
   150                           	callstack 0
   151   00045C  9021               	bcf	int$flags,0,c	;clear compiler interrupt flag (level 1)
   152   00045E  9221               	bcf	int$flags,1,c	;clear compiler interrupt flag (level 2)
   153   000460  0E00               	movlw	low (__Lmediumconst shr (0+16))
   154   000462  6EF8               	movwf	tblptru,c
   155   000464  0100               	movlb	0
   156   000466  EF35  F002         	goto	_main	;jump to C main() function
   157                           
   158                           	psect	bssCOMRAM
   159   00000F                     __pbssCOMRAM:
   160                           	callstack 0
   161   00000F                     _n3:
   162                           	callstack 0
   163   00000F                     	ds	2
   164   000011                     _n2:
   165                           	callstack 0
   166   000011                     	ds	2
   167   000013                     _n1:
   168                           	callstack 0
   169   000013                     	ds	2
   170   000015                     _n0:
   171                           	callstack 0
   172   000015                     	ds	2
   173   000017                     _dato:
   174                           	callstack 0
   175   000017                     	ds	2
   176                           
   177                           	psect	dataCOMRAM
   178   000001                     __pdataCOMRAM:
   179                           	callstack 0
   180   000001                     _D0:
   181                           	callstack 0
   182   000001                     	ds	1
   183   000002                     _D1:
   184                           	callstack 0
   185   000002                     	ds	1
   186   000003                     _D2:
   187                           	callstack 0
   188   000003                     	ds	1
   189   000004                     _D3:
   190                           	callstack 0
   191   000004                     	ds	1
   192   000005                     _NUEVE:
   193                           	callstack 0
   194   000005                     	ds	1
   195   000006                     _OCHO:
   196                           	callstack 0
   197   000006                     	ds	1
   198   000007                     _SIETE:
   199                           	callstack 0
   200   000007                     	ds	1
   201   000008                     _SEIS:
   202                           	callstack 0
   203   000008                     	ds	1
   204   000009                     _CINCO:
   205                           	callstack 0
   206   000009                     	ds	1
   207   00000A                     _CUATRO:
   208                           	callstack 0
   209   00000A                     	ds	1
   210   00000B                     _TRES:
   211                           	callstack 0
   212   00000B                     	ds	1
   213   00000C                     _DOS:
   214                           	callstack 0
   215   00000C                     	ds	1
   216   00000D                     _UNO:
   217                           	callstack 0
   218   00000D                     	ds	1
   219   00000E                     _CERO:
   220                           	callstack 0
   221   00000E                     	ds	1
   222                           
   223                           	psect	cstackCOMRAM
   224   000019                     __pcstackCOMRAM:
   225                           	callstack 0
   226   000019                     cambia@dato:
   227                           	callstack 0
   228                           
   229                           ; 2 bytes @ 0x0
   230   000019                     	ds	2
   231   00001B                     ??_cambia:
   232                           
   233                           ; 1 bytes @ 0x2
   234   00001B                     	ds	2
   235   00001D                     ??_isr_general:
   236                           
   237                           ; 1 bytes @ 0x4
   238   00001D                     	ds	2
   239   00001F                     ??_display0:
   240   00001F                     ??_display1:
   241   00001F                     ??_display2:
   242   00001F                     ??_display3:
   243                           
   244                           ; 1 bytes @ 0x6
   245   00001F                     	ds	2
   246   000021                     
   247                           ; 1 bytes @ 0x8
   248 ;;
   249 ;;Main: autosize = 0, tempsize = 0, incstack = 0, save=0
   250 ;;
   251 ;; *************** function _main *****************
   252 ;; Defined at:
   253 ;;		line 40 in file "InterrupcionM.c"
   254 ;; Parameters:    Size  Location     Type
   255 ;;		None
   256 ;; Auto vars:     Size  Location     Type
   257 ;;		None
   258 ;; Return value:  Size  Location     Type
   259 ;;                  1    wreg      void 
   260 ;; Registers used:
   261 ;;		wreg, status,2, status,0, cstack
   262 ;; Tracked objects:
   263 ;;		On entry : 0/0
   264 ;;		On exit  : 0/0
   265 ;;		Unchanged: 0/0
   266 ;; Data sizes:     COMRAM   BANK0   BANK1   BANK2   BANK3   BANK4   BANK5   BANK6   BANK7   BANK8   BANK9  BANK10  BANK1
      +1  BANK12  BANK13  BANK14  BANK15
   267 ;;      Params:         0       0       0       0       0       0       0       0       0       0       0       0       
      +0       0       0       0       0
   268 ;;      Locals:         0       0       0       0       0       0       0       0       0       0       0       0       
      +0       0       0       0       0
   269 ;;      Temps:          0       0       0       0       0       0       0       0       0       0       0       0       
      +0       0       0       0       0
   270 ;;      Totals:         0       0       0       0       0       0       0       0       0       0       0       0       
      +0       0       0       0       0
   271 ;;Total ram usage:        0 bytes
   272 ;; Hardware stack levels required when called: 3
   273 ;; This function calls:
   274 ;;		_display0
   275 ;;		_display1
   276 ;;		_display2
   277 ;;		_display3
   278 ;; This function is called by:
   279 ;;		Startup code after reset
   280 ;; This function uses a non-reentrant model
   281 ;;
   282                           
   283                           	psect	text0
   284   00046A                     __ptext0:
   285                           	callstack 0
   286   00046A                     _main:
   287                           	callstack 28
   288   00046A                     
   289                           ;InterrupcionM.c: 43:     TRISC = 0x0F;
   290   00046A  0E0F               	movlw	15
   291   00046C  6E94               	movwf	148,c	;volatile
   292                           
   293                           ;InterrupcionM.c: 45:     TRISD=0x00;
   294   00046E  0E00               	movlw	0
   295   000470  6E95               	movwf	149,c	;volatile
   296                           
   297                           ;InterrupcionM.c: 46:     TRISB=0xF0;
   298   000472  0EF0               	movlw	240
   299   000474  6E93               	movwf	147,c	;volatile
   300                           
   301                           ;InterrupcionM.c: 47:     ANSELB=0x00;
   302   000476  0E00               	movlw	0
   303   000478  010F               	movlb	15	; () banked
   304   00047A  6F39               	movwf	57,b	;volatile
   305                           
   306                           ;InterrupcionM.c: 50:     IOCB=0XF0;
   307   00047C  0EF0               	movlw	240
   308   00047E  6E62               	movwf	98,c	;volatile
   309   000480                     
   310                           ; BSR set to: 15
   311                           ;InterrupcionM.c: 52:     INTCONbits.RBIE=1;
   312   000480  86F2               	bsf	242,3,c	;volatile
   313   000482                     
   314                           ; BSR set to: 15
   315                           ;InterrupcionM.c: 53:     INTCONbits.RBIF=0;
   316   000482  90F2               	bcf	242,0,c	;volatile
   317   000484                     
   318                           ; BSR set to: 15
   319                           ;InterrupcionM.c: 54:     INTCONbits.GIE=1;
   320   000484  8EF2               	bsf	242,7,c	;volatile
   321   000486                     l965:
   322                           
   323                           ;InterrupcionM.c: 58:     {;InterrupcionM.c: 59:         display0();
   324   000486  EC0A  F001         	call	_display0	;wreg free
   325   00048A                     
   326                           ;InterrupcionM.c: 60:         display1();
   327   00048A  ECC6  F001         	call	_display1	;wreg free
   328   00048E                     
   329                           ;InterrupcionM.c: 61:         display2();
   330   00048E  ECA0  F000         	call	_display2	;wreg free
   331   000492                     
   332                           ;InterrupcionM.c: 62:         display3();
   333   000492  EC74  F001         	call	_display3	;wreg free
   334   000496  EF43  F002         	goto	l965
   335   00049A  EF23  F000         	goto	start
   336   00049E                     __end_of_main:
   337                           	callstack 0
   338                           
   339 ;; *************** function _display3 *****************
   340 ;; Defined at:
   341 ;;		line 259 in file "InterrupcionM.c"
   342 ;; Parameters:    Size  Location     Type
   343 ;;		None
   344 ;; Auto vars:     Size  Location     Type
   345 ;;		None
   346 ;; Return value:  Size  Location     Type
   347 ;;                  1    wreg      void 
   348 ;; Registers used:
   349 ;;		wreg, status,2, status,0
   350 ;; Tracked objects:
   351 ;;		On entry : 0/0
   352 ;;		On exit  : 0/0
   353 ;;		Unchanged: 0/0
   354 ;; Data sizes:     COMRAM   BANK0   BANK1   BANK2   BANK3   BANK4   BANK5   BANK6   BANK7   BANK8   BANK9  BANK10  BANK1
      +1  BANK12  BANK13  BANK14  BANK15
   355 ;;      Params:         0       0       0       0       0       0       0       0       0       0       0       0       
      +0       0       0       0       0
   356 ;;      Locals:         0       0       0       0       0       0       0       0       0       0       0       0       
      +0       0       0       0       0
   357 ;;      Temps:          2       0       0       0       0       0       0       0       0       0       0       0       
      +0       0       0       0       0
   358 ;;      Totals:         2       0       0       0       0       0       0       0       0       0       0       0       
      +0       0       0       0       0
   359 ;;Total ram usage:        2 bytes
   360 ;; Hardware stack levels used: 1
   361 ;; Hardware stack levels required when called: 2
   362 ;; This function calls:
   363 ;;		Nothing
   364 ;; This function is called by:
   365 ;;		_main
   366 ;; This function uses a non-reentrant model
   367 ;;
   368                           
   369                           	psect	text1
   370   0002E8                     __ptext1:
   371                           	callstack 0
   372   0002E8                     _display3:
   373                           	callstack 28
   374   0002E8                     
   375                           ;InterrupcionM.c: 261:     LATC = D3;
   376   0002E8  0E7F               	movlw	127
   377   0002EA  6E8B               	movwf	139,c	;volatile
   378                           
   379                           ;InterrupcionM.c: 262:     switch (n3)
   380   0002EC  EF94  F001         	goto	l929
   381   0002F0                     l913:
   382                           
   383                           ;InterrupcionM.c: 265:             LATD=CERO;
   384   0002F0  0E3F               	movlw	63
   385   0002F2  6E8C               	movwf	140,c	;volatile
   386                           
   387                           ;InterrupcionM.c: 266:         break;
   388   0002F4  EFBE  F001         	goto	l931
   389   0002F8                     l915:
   390                           
   391                           ;InterrupcionM.c: 269:             LATD=UNO;
   392   0002F8  0E06               	movlw	6
   393   0002FA  6E8C               	movwf	140,c	;volatile
   394                           
   395                           ;InterrupcionM.c: 270:         break;
   396   0002FC  EFBE  F001         	goto	l931
   397   000300                     l917:
   398                           
   399                           ;InterrupcionM.c: 273:             LATD=DOS;
   400   000300  0E5B               	movlw	91
   401   000302  6E8C               	movwf	140,c	;volatile
   402                           
   403                           ;InterrupcionM.c: 274:         break;
   404   000304  EFBE  F001         	goto	l931
   405   000308                     l919:
   406                           
   407                           ;InterrupcionM.c: 277:             LATD=TRES;
   408   000308  0E4F               	movlw	79
   409   00030A  6E8C               	movwf	140,c	;volatile
   410                           
   411                           ;InterrupcionM.c: 278:         break;
   412   00030C  EFBE  F001         	goto	l931
   413   000310                     l921:
   414                           
   415                           ;InterrupcionM.c: 281:             LATD=CUATRO;
   416   000310  0E66               	movlw	102
   417   000312  6E8C               	movwf	140,c	;volatile
   418                           
   419                           ;InterrupcionM.c: 282:         break;
   420   000314  EFBE  F001         	goto	l931
   421   000318                     l923:
   422                           
   423                           ;InterrupcionM.c: 285:             LATD=CINCO;
   424   000318  0E6D               	movlw	109
   425   00031A  6E8C               	movwf	140,c	;volatile
   426                           
   427                           ;InterrupcionM.c: 286:         break;
   428   00031C  EFBE  F001         	goto	l931
   429   000320                     l925:
   430                           
   431                           ;InterrupcionM.c: 289:             LATD=SEIS;
   432   000320  0E7D               	movlw	125
   433   000322  6E8C               	movwf	140,c	;volatile
   434                           
   435                           ;InterrupcionM.c: 290:         break;
   436   000324  EFBE  F001         	goto	l931
   437   000328                     l929:
   438   000328  C00F  F01F         	movff	_n3,??_display3
   439   00032C  C010  F020         	movff	_n3+1,??_display3+1
   440                           
   441                           ; Switch on 2 bytes has been partitioned into a top level switch of size 1, and 1 sub-sw
      +                          itches
   442                           ; Switch size 1, requested type "simple"
   443                           ; Number of cases is 1, Range of values is 0 to 0
   444                           ; switch strategies available:
   445                           ; Name         Instructions Cycles
   446                           ; simple_byte            4     3 (average)
   447                           ;	Chosen strategy is simple_byte
   448   000330  5020               	movf	(??_display3+1)^0,w,c
   449   000332  0A00               	xorlw	0	; case 0
   450   000334  B4D8               	btfsc	status,2,c
   451   000336  EF9F  F001         	goto	l1225
   452   00033A  EFBE  F001         	goto	l931
   453   00033E                     l1225:
   454                           
   455                           ; Switch size 1, requested type "simple"
   456                           ; Number of cases is 7, Range of values is 0 to 6
   457                           ; switch strategies available:
   458                           ; Name         Instructions Cycles
   459                           ; simple_byte           22    12 (average)
   460                           ;	Chosen strategy is simple_byte
   461   00033E  501F               	movf	??_display3^0,w,c
   462   000340  0A00               	xorlw	0	; case 0
   463   000342  B4D8               	btfsc	status,2,c
   464   000344  EF78  F001         	goto	l913
   465   000348  0A01               	xorlw	1	; case 1
   466   00034A  B4D8               	btfsc	status,2,c
   467   00034C  EF7C  F001         	goto	l915
   468   000350  0A03               	xorlw	3	; case 2
   469   000352  B4D8               	btfsc	status,2,c
   470   000354  EF80  F001         	goto	l917
   471   000358  0A01               	xorlw	1	; case 3
   472   00035A  B4D8               	btfsc	status,2,c
   473   00035C  EF84  F001         	goto	l919
   474   000360  0A07               	xorlw	7	; case 4
   475   000362  B4D8               	btfsc	status,2,c
   476   000364  EF88  F001         	goto	l921
   477   000368  0A01               	xorlw	1	; case 5
   478   00036A  B4D8               	btfsc	status,2,c
   479   00036C  EF8C  F001         	goto	l923
   480   000370  0A03               	xorlw	3	; case 6
   481   000372  B4D8               	btfsc	status,2,c
   482   000374  EF90  F001         	goto	l925
   483   000378  EFBE  F001         	goto	l931
   484   00037C                     l931:
   485                           
   486                           ;InterrupcionM.c: 292:     _delay((unsigned long)((5)*(8000000/4000.0)));
   487   00037C  0E0D               	movlw	13
   488   00037E  6E1F               	movwf	??_display3^0,c
   489   000380  0EFC               	movlw	252
   490   000382                     u17:
   491   000382  2EE8               	decfsz	wreg,f,c
   492   000384  D7FE               	bra	u17
   493   000386  2E1F               	decfsz	??_display3^0,f,c
   494   000388  D7FC               	bra	u17
   495   00038A  0012               	return		;funcret
   496   00038C                     __end_of_display3:
   497                           	callstack 0
   498                           
   499 ;; *************** function _display2 *****************
   500 ;; Defined at:
   501 ;;		line 211 in file "InterrupcionM.c"
   502 ;; Parameters:    Size  Location     Type
   503 ;;		None
   504 ;; Auto vars:     Size  Location     Type
   505 ;;		None
   506 ;; Return value:  Size  Location     Type
   507 ;;                  1    wreg      void 
   508 ;; Registers used:
   509 ;;		wreg, status,2, status,0
   510 ;; Tracked objects:
   511 ;;		On entry : 0/0
   512 ;;		On exit  : 0/0
   513 ;;		Unchanged: 0/0
   514 ;; Data sizes:     COMRAM   BANK0   BANK1   BANK2   BANK3   BANK4   BANK5   BANK6   BANK7   BANK8   BANK9  BANK10  BANK1
      +1  BANK12  BANK13  BANK14  BANK15
   515 ;;      Params:         0       0       0       0       0       0       0       0       0       0       0       0       
      +0       0       0       0       0
   516 ;;      Locals:         0       0       0       0       0       0       0       0       0       0       0       0       
      +0       0       0       0       0
   517 ;;      Temps:          2       0       0       0       0       0       0       0       0       0       0       0       
      +0       0       0       0       0
   518 ;;      Totals:         2       0       0       0       0       0       0       0       0       0       0       0       
      +0       0       0       0       0
   519 ;;Total ram usage:        2 bytes
   520 ;; Hardware stack levels used: 1
   521 ;; Hardware stack levels required when called: 2
   522 ;; This function calls:
   523 ;;		Nothing
   524 ;; This function is called by:
   525 ;;		_main
   526 ;; This function uses a non-reentrant model
   527 ;;
   528                           
   529                           	psect	text2
   530   000140                     __ptext2:
   531                           	callstack 0
   532   000140                     _display2:
   533                           	callstack 28
   534   000140                     
   535                           ;InterrupcionM.c: 213:     LATC = D2;
   536   000140  0EBF               	movlw	191
   537   000142  6E8B               	movwf	139,c	;volatile
   538                           
   539                           ;InterrupcionM.c: 214:     switch (n2)
   540   000144  EFCC  F000         	goto	l903
   541   000148                     l881:
   542                           
   543                           ;InterrupcionM.c: 217:             LATD=CERO;
   544   000148  0E3F               	movlw	63
   545   00014A  6E8C               	movwf	140,c	;volatile
   546                           
   547                           ;InterrupcionM.c: 218:         break;
   548   00014C  EF02  F001         	goto	l905
   549   000150                     l883:
   550                           
   551                           ;InterrupcionM.c: 221:             LATD=UNO;
   552   000150  0E06               	movlw	6
   553   000152  6E8C               	movwf	140,c	;volatile
   554                           
   555                           ;InterrupcionM.c: 222:         break;
   556   000154  EF02  F001         	goto	l905
   557   000158                     l885:
   558                           
   559                           ;InterrupcionM.c: 225:             LATD=DOS;
   560   000158  0E5B               	movlw	91
   561   00015A  6E8C               	movwf	140,c	;volatile
   562                           
   563                           ;InterrupcionM.c: 226:         break;
   564   00015C  EF02  F001         	goto	l905
   565   000160                     l887:
   566                           
   567                           ;InterrupcionM.c: 229:             LATD=TRES;
   568   000160  0E4F               	movlw	79
   569   000162  6E8C               	movwf	140,c	;volatile
   570                           
   571                           ;InterrupcionM.c: 230:         break;
   572   000164  EF02  F001         	goto	l905
   573   000168                     l889:
   574                           
   575                           ;InterrupcionM.c: 233:             LATD=CUATRO;
   576   000168  0E66               	movlw	102
   577   00016A  6E8C               	movwf	140,c	;volatile
   578                           
   579                           ;InterrupcionM.c: 234:         break;
   580   00016C  EF02  F001         	goto	l905
   581   000170                     l891:
   582                           
   583                           ;InterrupcionM.c: 237:             LATD=CINCO;
   584   000170  0E6D               	movlw	109
   585   000172  6E8C               	movwf	140,c	;volatile
   586                           
   587                           ;InterrupcionM.c: 238:         break;
   588   000174  EF02  F001         	goto	l905
   589   000178                     l893:
   590                           
   591                           ;InterrupcionM.c: 241:             LATD=SEIS;
   592   000178  0E7D               	movlw	125
   593   00017A  6E8C               	movwf	140,c	;volatile
   594                           
   595                           ;InterrupcionM.c: 242:         break;
   596   00017C  EF02  F001         	goto	l905
   597   000180                     l895:
   598                           
   599                           ;InterrupcionM.c: 245:             LATD=SIETE;
   600   000180  0E07               	movlw	7
   601   000182  6E8C               	movwf	140,c	;volatile
   602                           
   603                           ;InterrupcionM.c: 246:         break;
   604   000184  EF02  F001         	goto	l905
   605   000188                     l897:
   606                           
   607                           ;InterrupcionM.c: 249:             LATD=OCHO;
   608   000188  0E7F               	movlw	127
   609   00018A  6E8C               	movwf	140,c	;volatile
   610                           
   611                           ;InterrupcionM.c: 250:         break;
   612   00018C  EF02  F001         	goto	l905
   613   000190                     l899:
   614                           
   615                           ;InterrupcionM.c: 253:             LATD=NUEVE;
   616   000190  0E6F               	movlw	111
   617   000192  6E8C               	movwf	140,c	;volatile
   618                           
   619                           ;InterrupcionM.c: 254:         break;
   620   000194  EF02  F001         	goto	l905
   621   000198                     l903:
   622   000198  C011  F01F         	movff	_n2,??_display2
   623   00019C  C012  F020         	movff	_n2+1,??_display2+1
   624                           
   625                           ; Switch on 2 bytes has been partitioned into a top level switch of size 1, and 1 sub-sw
      +                          itches
   626                           ; Switch size 1, requested type "simple"
   627                           ; Number of cases is 1, Range of values is 0 to 0
   628                           ; switch strategies available:
   629                           ; Name         Instructions Cycles
   630                           ; simple_byte            4     3 (average)
   631                           ;	Chosen strategy is simple_byte
   632   0001A0  5020               	movf	(??_display2+1)^0,w,c
   633   0001A2  0A00               	xorlw	0	; case 0
   634   0001A4  B4D8               	btfsc	status,2,c
   635   0001A6  EFD7  F000         	goto	l1227
   636   0001AA  EF02  F001         	goto	l905
   637   0001AE                     l1227:
   638                           
   639                           ; Switch size 1, requested type "simple"
   640                           ; Number of cases is 10, Range of values is 0 to 9
   641                           ; switch strategies available:
   642                           ; Name         Instructions Cycles
   643                           ; simple_byte           31    16 (average)
   644                           ;	Chosen strategy is simple_byte
   645   0001AE  501F               	movf	??_display2^0,w,c
   646   0001B0  0A00               	xorlw	0	; case 0
   647   0001B2  B4D8               	btfsc	status,2,c
   648   0001B4  EFA4  F000         	goto	l881
   649   0001B8  0A01               	xorlw	1	; case 1
   650   0001BA  B4D8               	btfsc	status,2,c
   651   0001BC  EFA8  F000         	goto	l883
   652   0001C0  0A03               	xorlw	3	; case 2
   653   0001C2  B4D8               	btfsc	status,2,c
   654   0001C4  EFAC  F000         	goto	l885
   655   0001C8  0A01               	xorlw	1	; case 3
   656   0001CA  B4D8               	btfsc	status,2,c
   657   0001CC  EFB0  F000         	goto	l887
   658   0001D0  0A07               	xorlw	7	; case 4
   659   0001D2  B4D8               	btfsc	status,2,c
   660   0001D4  EFB4  F000         	goto	l889
   661   0001D8  0A01               	xorlw	1	; case 5
   662   0001DA  B4D8               	btfsc	status,2,c
   663   0001DC  EFB8  F000         	goto	l891
   664   0001E0  0A03               	xorlw	3	; case 6
   665   0001E2  B4D8               	btfsc	status,2,c
   666   0001E4  EFBC  F000         	goto	l893
   667   0001E8  0A01               	xorlw	1	; case 7
   668   0001EA  B4D8               	btfsc	status,2,c
   669   0001EC  EFC0  F000         	goto	l895
   670   0001F0  0A0F               	xorlw	15	; case 8
   671   0001F2  B4D8               	btfsc	status,2,c
   672   0001F4  EFC4  F000         	goto	l897
   673   0001F8  0A01               	xorlw	1	; case 9
   674   0001FA  B4D8               	btfsc	status,2,c
   675   0001FC  EFC8  F000         	goto	l899
   676   000200  EF02  F001         	goto	l905
   677   000204                     l905:
   678                           
   679                           ;InterrupcionM.c: 256:     _delay((unsigned long)((5)*(8000000/4000.0)));
   680   000204  0E0D               	movlw	13
   681   000206  6E1F               	movwf	??_display2^0,c
   682   000208  0EFC               	movlw	252
   683   00020A                     u27:
   684   00020A  2EE8               	decfsz	wreg,f,c
   685   00020C  D7FE               	bra	u27
   686   00020E  2E1F               	decfsz	??_display2^0,f,c
   687   000210  D7FC               	bra	u27
   688   000212  0012               	return		;funcret
   689   000214                     __end_of_display2:
   690                           	callstack 0
   691                           
   692 ;; *************** function _display1 *****************
   693 ;; Defined at:
   694 ;;		line 176 in file "InterrupcionM.c"
   695 ;; Parameters:    Size  Location     Type
   696 ;;		None
   697 ;; Auto vars:     Size  Location     Type
   698 ;;		None
   699 ;; Return value:  Size  Location     Type
   700 ;;                  1    wreg      void 
   701 ;; Registers used:
   702 ;;		wreg, status,2, status,0
   703 ;; Tracked objects:
   704 ;;		On entry : 0/0
   705 ;;		On exit  : 0/0
   706 ;;		Unchanged: 0/0
   707 ;; Data sizes:     COMRAM   BANK0   BANK1   BANK2   BANK3   BANK4   BANK5   BANK6   BANK7   BANK8   BANK9  BANK10  BANK1
      +1  BANK12  BANK13  BANK14  BANK15
   708 ;;      Params:         0       0       0       0       0       0       0       0       0       0       0       0       
      +0       0       0       0       0
   709 ;;      Locals:         0       0       0       0       0       0       0       0       0       0       0       0       
      +0       0       0       0       0
   710 ;;      Temps:          2       0       0       0       0       0       0       0       0       0       0       0       
      +0       0       0       0       0
   711 ;;      Totals:         2       0       0       0       0       0       0       0       0       0       0       0       
      +0       0       0       0       0
   712 ;;Total ram usage:        2 bytes
   713 ;; Hardware stack levels used: 1
   714 ;; Hardware stack levels required when called: 2
   715 ;; This function calls:
   716 ;;		Nothing
   717 ;; This function is called by:
   718 ;;		_main
   719 ;; This function uses a non-reentrant model
   720 ;;
   721                           
   722                           	psect	text3
   723   00038C                     __ptext3:
   724                           	callstack 0
   725   00038C                     _display1:
   726                           	callstack 28
   727   00038C                     
   728                           ;InterrupcionM.c: 178:     LATC = D1;
   729   00038C  0EDF               	movlw	223
   730   00038E  6E8B               	movwf	139,c	;volatile
   731                           
   732                           ;InterrupcionM.c: 179:     switch (n1)
   733   000390  EFE6  F001         	goto	l871
   734   000394                     l855:
   735                           
   736                           ;InterrupcionM.c: 182:             LATD=CERO;
   737   000394  0E3F               	movlw	63
   738   000396  6E8C               	movwf	140,c	;volatile
   739                           
   740                           ;InterrupcionM.c: 183:         break;
   741   000398  EF10  F002         	goto	l873
   742   00039C                     l857:
   743                           
   744                           ;InterrupcionM.c: 186:             LATD=UNO;
   745   00039C  0E06               	movlw	6
   746   00039E  6E8C               	movwf	140,c	;volatile
   747                           
   748                           ;InterrupcionM.c: 187:         break;
   749   0003A0  EF10  F002         	goto	l873
   750   0003A4                     l859:
   751                           
   752                           ;InterrupcionM.c: 190:             LATD=DOS;
   753   0003A4  0E5B               	movlw	91
   754   0003A6  6E8C               	movwf	140,c	;volatile
   755                           
   756                           ;InterrupcionM.c: 191:         break;
   757   0003A8  EF10  F002         	goto	l873
   758   0003AC                     l861:
   759                           
   760                           ;InterrupcionM.c: 194:             LATD=TRES;
   761   0003AC  0E4F               	movlw	79
   762   0003AE  6E8C               	movwf	140,c	;volatile
   763                           
   764                           ;InterrupcionM.c: 195:         break;
   765   0003B0  EF10  F002         	goto	l873
   766   0003B4                     l863:
   767                           
   768                           ;InterrupcionM.c: 198:             LATD=CUATRO;
   769   0003B4  0E66               	movlw	102
   770   0003B6  6E8C               	movwf	140,c	;volatile
   771                           
   772                           ;InterrupcionM.c: 199:         break;
   773   0003B8  EF10  F002         	goto	l873
   774   0003BC                     l865:
   775                           
   776                           ;InterrupcionM.c: 202:             LATD=CINCO;
   777   0003BC  0E6D               	movlw	109
   778   0003BE  6E8C               	movwf	140,c	;volatile
   779                           
   780                           ;InterrupcionM.c: 203:         break;
   781   0003C0  EF10  F002         	goto	l873
   782   0003C4                     l867:
   783                           
   784                           ;InterrupcionM.c: 206:             LATD=SEIS;
   785   0003C4  0E7D               	movlw	125
   786   0003C6  6E8C               	movwf	140,c	;volatile
   787                           
   788                           ;InterrupcionM.c: 207:         break;
   789   0003C8  EF10  F002         	goto	l873
   790   0003CC                     l871:
   791   0003CC  C013  F01F         	movff	_n1,??_display1
   792   0003D0  C014  F020         	movff	_n1+1,??_display1+1
   793                           
   794                           ; Switch on 2 bytes has been partitioned into a top level switch of size 1, and 1 sub-sw
      +                          itches
   795                           ; Switch size 1, requested type "simple"
   796                           ; Number of cases is 1, Range of values is 0 to 0
   797                           ; switch strategies available:
   798                           ; Name         Instructions Cycles
   799                           ; simple_byte            4     3 (average)
   800                           ;	Chosen strategy is simple_byte
   801   0003D4  5020               	movf	(??_display1+1)^0,w,c
   802   0003D6  0A00               	xorlw	0	; case 0
   803   0003D8  B4D8               	btfsc	status,2,c
   804   0003DA  EFF1  F001         	goto	l1229
   805   0003DE  EF10  F002         	goto	l873
   806   0003E2                     l1229:
   807                           
   808                           ; Switch size 1, requested type "simple"
   809                           ; Number of cases is 7, Range of values is 0 to 6
   810                           ; switch strategies available:
   811                           ; Name         Instructions Cycles
   812                           ; simple_byte           22    12 (average)
   813                           ;	Chosen strategy is simple_byte
   814   0003E2  501F               	movf	??_display1^0,w,c
   815   0003E4  0A00               	xorlw	0	; case 0
   816   0003E6  B4D8               	btfsc	status,2,c
   817   0003E8  EFCA  F001         	goto	l855
   818   0003EC  0A01               	xorlw	1	; case 1
   819   0003EE  B4D8               	btfsc	status,2,c
   820   0003F0  EFCE  F001         	goto	l857
   821   0003F4  0A03               	xorlw	3	; case 2
   822   0003F6  B4D8               	btfsc	status,2,c
   823   0003F8  EFD2  F001         	goto	l859
   824   0003FC  0A01               	xorlw	1	; case 3
   825   0003FE  B4D8               	btfsc	status,2,c
   826   000400  EFD6  F001         	goto	l861
   827   000404  0A07               	xorlw	7	; case 4
   828   000406  B4D8               	btfsc	status,2,c
   829   000408  EFDA  F001         	goto	l863
   830   00040C  0A01               	xorlw	1	; case 5
   831   00040E  B4D8               	btfsc	status,2,c
   832   000410  EFDE  F001         	goto	l865
   833   000414  0A03               	xorlw	3	; case 6
   834   000416  B4D8               	btfsc	status,2,c
   835   000418  EFE2  F001         	goto	l867
   836   00041C  EF10  F002         	goto	l873
   837   000420                     l873:
   838                           
   839                           ;InterrupcionM.c: 209:     _delay((unsigned long)((5)*(8000000/4000.0)));
   840   000420  0E0D               	movlw	13
   841   000422  6E1F               	movwf	??_display1^0,c
   842   000424  0EFC               	movlw	252
   843   000426                     u37:
   844   000426  2EE8               	decfsz	wreg,f,c
   845   000428  D7FE               	bra	u37
   846   00042A  2E1F               	decfsz	??_display1^0,f,c
   847   00042C  D7FC               	bra	u37
   848   00042E  0012               	return		;funcret
   849   000430                     __end_of_display1:
   850                           	callstack 0
   851                           
   852 ;; *************** function _display0 *****************
   853 ;; Defined at:
   854 ;;		line 127 in file "InterrupcionM.c"
   855 ;; Parameters:    Size  Location     Type
   856 ;;		None
   857 ;; Auto vars:     Size  Location     Type
   858 ;;		None
   859 ;; Return value:  Size  Location     Type
   860 ;;                  1    wreg      void 
   861 ;; Registers used:
   862 ;;		wreg, status,2, status,0
   863 ;; Tracked objects:
   864 ;;		On entry : 0/0
   865 ;;		On exit  : 0/0
   866 ;;		Unchanged: 0/0
   867 ;; Data sizes:     COMRAM   BANK0   BANK1   BANK2   BANK3   BANK4   BANK5   BANK6   BANK7   BANK8   BANK9  BANK10  BANK1
      +1  BANK12  BANK13  BANK14  BANK15
   868 ;;      Params:         0       0       0       0       0       0       0       0       0       0       0       0       
      +0       0       0       0       0
   869 ;;      Locals:         0       0       0       0       0       0       0       0       0       0       0       0       
      +0       0       0       0       0
   870 ;;      Temps:          2       0       0       0       0       0       0       0       0       0       0       0       
      +0       0       0       0       0
   871 ;;      Totals:         2       0       0       0       0       0       0       0       0       0       0       0       
      +0       0       0       0       0
   872 ;;Total ram usage:        2 bytes
   873 ;; Hardware stack levels used: 1
   874 ;; Hardware stack levels required when called: 2
   875 ;; This function calls:
   876 ;;		Nothing
   877 ;; This function is called by:
   878 ;;		_main
   879 ;; This function uses a non-reentrant model
   880 ;;
   881                           
   882                           	psect	text4
   883   000214                     __ptext4:
   884                           	callstack 0
   885   000214                     _display0:
   886                           	callstack 28
   887   000214                     
   888                           ;InterrupcionM.c: 130:     LATC = D0;
   889   000214  0EEF               	movlw	239
   890   000216  6E8B               	movwf	139,c	;volatile
   891                           
   892                           ;InterrupcionM.c: 131:     switch (n0)
   893   000218  EF36  F001         	goto	l845
   894   00021C                     l823:
   895                           
   896                           ;InterrupcionM.c: 134:             LATD=CERO;
   897   00021C  0E3F               	movlw	63
   898   00021E  6E8C               	movwf	140,c	;volatile
   899                           
   900                           ;InterrupcionM.c: 135:         break;
   901   000220  EF6C  F001         	goto	l847
   902   000224                     l825:
   903                           
   904                           ;InterrupcionM.c: 138:             LATD=UNO;
   905   000224  0E06               	movlw	6
   906   000226  6E8C               	movwf	140,c	;volatile
   907                           
   908                           ;InterrupcionM.c: 139:         break;
   909   000228  EF6C  F001         	goto	l847
   910   00022C                     l827:
   911                           
   912                           ;InterrupcionM.c: 142:             LATD=DOS;
   913   00022C  0E5B               	movlw	91
   914   00022E  6E8C               	movwf	140,c	;volatile
   915                           
   916                           ;InterrupcionM.c: 143:         break;
   917   000230  EF6C  F001         	goto	l847
   918   000234                     l829:
   919                           
   920                           ;InterrupcionM.c: 146:             LATD=TRES;
   921   000234  0E4F               	movlw	79
   922   000236  6E8C               	movwf	140,c	;volatile
   923                           
   924                           ;InterrupcionM.c: 147:         break;
   925   000238  EF6C  F001         	goto	l847
   926   00023C                     l831:
   927                           
   928                           ;InterrupcionM.c: 150:             LATD=CUATRO;
   929   00023C  0E66               	movlw	102
   930   00023E  6E8C               	movwf	140,c	;volatile
   931                           
   932                           ;InterrupcionM.c: 151:         break;
   933   000240  EF6C  F001         	goto	l847
   934   000244                     l833:
   935                           
   936                           ;InterrupcionM.c: 154:             LATD=CINCO;
   937   000244  0E6D               	movlw	109
   938   000246  6E8C               	movwf	140,c	;volatile
   939                           
   940                           ;InterrupcionM.c: 155:         break;
   941   000248  EF6C  F001         	goto	l847
   942   00024C                     l835:
   943                           
   944                           ;InterrupcionM.c: 158:             LATD=SEIS;
   945   00024C  0E7D               	movlw	125
   946   00024E  6E8C               	movwf	140,c	;volatile
   947                           
   948                           ;InterrupcionM.c: 159:         break;
   949   000250  EF6C  F001         	goto	l847
   950   000254                     l837:
   951                           
   952                           ;InterrupcionM.c: 162:             LATD=SIETE;
   953   000254  0E07               	movlw	7
   954   000256  6E8C               	movwf	140,c	;volatile
   955                           
   956                           ;InterrupcionM.c: 163:         break;
   957   000258  EF6C  F001         	goto	l847
   958   00025C                     l839:
   959                           
   960                           ;InterrupcionM.c: 166:             LATD=OCHO;
   961   00025C  0E7F               	movlw	127
   962   00025E  6E8C               	movwf	140,c	;volatile
   963                           
   964                           ;InterrupcionM.c: 167:         break;
   965   000260  EF6C  F001         	goto	l847
   966   000264                     l841:
   967                           
   968                           ;InterrupcionM.c: 170:             LATD=NUEVE;
   969   000264  0E6F               	movlw	111
   970   000266  6E8C               	movwf	140,c	;volatile
   971                           
   972                           ;InterrupcionM.c: 171:         break;
   973   000268  EF6C  F001         	goto	l847
   974   00026C                     l845:
   975   00026C  C015  F01F         	movff	_n0,??_display0
   976   000270  C016  F020         	movff	_n0+1,??_display0+1
   977                           
   978                           ; Switch on 2 bytes has been partitioned into a top level switch of size 1, and 1 sub-sw
      +                          itches
   979                           ; Switch size 1, requested type "simple"
   980                           ; Number of cases is 1, Range of values is 0 to 0
   981                           ; switch strategies available:
   982                           ; Name         Instructions Cycles
   983                           ; simple_byte            4     3 (average)
   984                           ;	Chosen strategy is simple_byte
   985   000274  5020               	movf	(??_display0+1)^0,w,c
   986   000276  0A00               	xorlw	0	; case 0
   987   000278  B4D8               	btfsc	status,2,c
   988   00027A  EF41  F001         	goto	l1231
   989   00027E  EF6C  F001         	goto	l847
   990   000282                     l1231:
   991                           
   992                           ; Switch size 1, requested type "simple"
   993                           ; Number of cases is 10, Range of values is 0 to 9
   994                           ; switch strategies available:
   995                           ; Name         Instructions Cycles
   996                           ; simple_byte           31    16 (average)
   997                           ;	Chosen strategy is simple_byte
   998   000282  501F               	movf	??_display0^0,w,c
   999   000284  0A00               	xorlw	0	; case 0
  1000   000286  B4D8               	btfsc	status,2,c
  1001   000288  EF0E  F001         	goto	l823
  1002   00028C  0A01               	xorlw	1	; case 1
  1003   00028E  B4D8               	btfsc	status,2,c
  1004   000290  EF12  F001         	goto	l825
  1005   000294  0A03               	xorlw	3	; case 2
  1006   000296  B4D8               	btfsc	status,2,c
  1007   000298  EF16  F001         	goto	l827
  1008   00029C  0A01               	xorlw	1	; case 3
  1009   00029E  B4D8               	btfsc	status,2,c
  1010   0002A0  EF1A  F001         	goto	l829
  1011   0002A4  0A07               	xorlw	7	; case 4
  1012   0002A6  B4D8               	btfsc	status,2,c
  1013   0002A8  EF1E  F001         	goto	l831
  1014   0002AC  0A01               	xorlw	1	; case 5
  1015   0002AE  B4D8               	btfsc	status,2,c
  1016   0002B0  EF22  F001         	goto	l833
  1017   0002B4  0A03               	xorlw	3	; case 6
  1018   0002B6  B4D8               	btfsc	status,2,c
  1019   0002B8  EF26  F001         	goto	l835
  1020   0002BC  0A01               	xorlw	1	; case 7
  1021   0002BE  B4D8               	btfsc	status,2,c
  1022   0002C0  EF2A  F001         	goto	l837
  1023   0002C4  0A0F               	xorlw	15	; case 8
  1024   0002C6  B4D8               	btfsc	status,2,c
  1025   0002C8  EF2E  F001         	goto	l839
  1026   0002CC  0A01               	xorlw	1	; case 9
  1027   0002CE  B4D8               	btfsc	status,2,c
  1028   0002D0  EF32  F001         	goto	l841
  1029   0002D4  EF6C  F001         	goto	l847
  1030   0002D8                     l847:
  1031                           
  1032                           ;InterrupcionM.c: 173:     _delay((unsigned long)((5)*(8000000/4000.0)));
  1033   0002D8  0E0D               	movlw	13
  1034   0002DA  6E1F               	movwf	??_display0^0,c
  1035   0002DC  0EFC               	movlw	252
  1036   0002DE                     u47:
  1037   0002DE  2EE8               	decfsz	wreg,f,c
  1038   0002E0  D7FE               	bra	u47
  1039   0002E2  2E1F               	decfsz	??_display0^0,f,c
  1040   0002E4  D7FC               	bra	u47
  1041   0002E6  0012               	return		;funcret
  1042   0002E8                     __end_of_display0:
  1043                           	callstack 0
  1044                           
  1045 ;; *************** function _isr_general *****************
  1046 ;; Defined at:
  1047 ;;		line 68 in file "InterrupcionM.c"
  1048 ;; Parameters:    Size  Location     Type
  1049 ;;		None
  1050 ;; Auto vars:     Size  Location     Type
  1051 ;;		None
  1052 ;; Return value:  Size  Location     Type
  1053 ;;                  1    wreg      void 
  1054 ;; Registers used:
  1055 ;;		wreg, status,2, status,0, cstack
  1056 ;; Tracked objects:
  1057 ;;		On entry : 0/0
  1058 ;;		On exit  : 0/0
  1059 ;;		Unchanged: 0/0
  1060 ;; Data sizes:     COMRAM   BANK0   BANK1   BANK2   BANK3   BANK4   BANK5   BANK6   BANK7   BANK8   BANK9  BANK10  BANK1
      +1  BANK12  BANK13  BANK14  BANK15
  1061 ;;      Params:         0       0       0       0       0       0       0       0       0       0       0       0       
      +0       0       0       0       0
  1062 ;;      Locals:         0       0       0       0       0       0       0       0       0       0       0       0       
      +0       0       0       0       0
  1063 ;;      Temps:          2       0       0       0       0       0       0       0       0       0       0       0       
      +0       0       0       0       0
  1064 ;;      Totals:         2       0       0       0       0       0       0       0       0       0       0       0       
      +0       0       0       0       0
  1065 ;;Total ram usage:        2 bytes
  1066 ;; Hardware stack levels used: 1
  1067 ;; Hardware stack levels required when called: 1
  1068 ;; This function calls:
  1069 ;;		_cambia
  1070 ;; This function is called by:
  1071 ;;		Interrupt level 2
  1072 ;; This function uses a non-reentrant model
  1073 ;;
  1074                           
  1075                           	psect	intcode
  1076   000008                     __pintcode:
  1077                           	callstack 0
  1078   000008                     _isr_general:
  1079                           	callstack 28
  1080                           
  1081                           ;incstack = 0
  1082   000008  8221               	bsf	int$flags,1,c	;set compiler interrupt flag (level 2)
  1083   00000A                     
  1084                           ;InterrupcionM.c: 70:     IOCB=0X00;
  1085   00000A  0E00               	movlw	0
  1086   00000C  6E62               	movwf	98,c	;volatile
  1087   00000E                     
  1088                           ;InterrupcionM.c: 71:     dato=PORTB;
  1089   00000E  CF81 F017          	movff	3969,_dato	;volatile
  1090   000012  6A18               	clrf	(_dato+1)^0,c
  1091   000014                     
  1092                           ;InterrupcionM.c: 72:     INTCONbits.RBIF=0;
  1093   000014  90F2               	bcf	242,0,c	;volatile
  1094   000016                     
  1095                           ;InterrupcionM.c: 73:     INTCONbits.RBIE=0;
  1096   000016  96F2               	bcf	242,3,c	;volatile
  1097   000018                     
  1098                           ;InterrupcionM.c: 75:     _delay((unsigned long)((600)*(8000000/4000.0)));
  1099   000018  0E07               	movlw	7
  1100   00001A  6E1E               	movwf	(??_isr_general+1)^0,c
  1101   00001C  0E17               	movlw	23
  1102   00001E  6E1D               	movwf	??_isr_general^0,c
  1103   000020  0E6A               	movlw	106
  1104   000022                     i2u5_47:
  1105   000022  2EE8               	decfsz	wreg,f,c
  1106   000024  D7FE               	bra	i2u5_47
  1107   000026  2E1D               	decfsz	??_isr_general^0,f,c
  1108   000028  D7FC               	bra	i2u5_47
  1109   00002A  2E1E               	decfsz	(??_isr_general+1)^0,f,c
  1110   00002C  D7FA               	bra	i2u5_47
  1111   00002E  D000               	nop2	
  1112   000030                     
  1113                           ;InterrupcionM.c: 77:     cambia(dato);
  1114   000030  C017  F019         	movff	_dato,cambia@dato
  1115   000034  C018  F01A         	movff	_dato+1,cambia@dato+1
  1116   000038  EC25  F000         	call	_cambia	;wreg free
  1117   00003C                     
  1118                           ;InterrupcionM.c: 81:     INTCONbits.RBIE=1;
  1119   00003C  86F2               	bsf	242,3,c	;volatile
  1120   00003E                     
  1121                           ;InterrupcionM.c: 82:     IOCB=0XF0;
  1122   00003E  0EF0               	movlw	240
  1123   000040  6E62               	movwf	98,c	;volatile
  1124   000042  9221               	bcf	int$flags,1,c	;clear compiler interrupt flag (level 2)
  1125   000044  0011               	retfie		f
  1126   000046                     __end_of_isr_general:
  1127                           	callstack 0
  1128                           
  1129 ;; *************** function _cambia *****************
  1130 ;; Defined at:
  1131 ;;		line 88 in file "InterrupcionM.c"
  1132 ;; Parameters:    Size  Location     Type
  1133 ;;  dato            2    0[COMRAM] int 
  1134 ;; Auto vars:     Size  Location     Type
  1135 ;;		None
  1136 ;; Return value:  Size  Location     Type
  1137 ;;                  1    wreg      void 
  1138 ;; Registers used:
  1139 ;;		wreg, status,2, status,0
  1140 ;; Tracked objects:
  1141 ;;		On entry : 0/0
  1142 ;;		On exit  : 0/0
  1143 ;;		Unchanged: 0/0
  1144 ;; Data sizes:     COMRAM   BANK0   BANK1   BANK2   BANK3   BANK4   BANK5   BANK6   BANK7   BANK8   BANK9  BANK10  BANK1
      +1  BANK12  BANK13  BANK14  BANK15
  1145 ;;      Params:         2       0       0       0       0       0       0       0       0       0       0       0       
      +0       0       0       0       0
  1146 ;;      Locals:         0       0       0       0       0       0       0       0       0       0       0       0       
      +0       0       0       0       0
  1147 ;;      Temps:          2       0       0       0       0       0       0       0       0       0       0       0       
      +0       0       0       0       0
  1148 ;;      Totals:         4       0       0       0       0       0       0       0       0       0       0       0       
      +0       0       0       0       0
  1149 ;;Total ram usage:        4 bytes
  1150 ;; Hardware stack levels used: 1
  1151 ;; This function calls:
  1152 ;;		Nothing
  1153 ;; This function is called by:
  1154 ;;		_isr_general
  1155 ;; This function uses a non-reentrant model
  1156 ;;
  1157                           
  1158                           	psect	text6
  1159   00004A                     __ptext6:
  1160                           	callstack 0
  1161   00004A                     _cambia:
  1162                           	callstack 28
  1163   00004A                     
  1164                           ;InterrupcionM.c: 89:     switch (dato){
  1165   00004A  EF81  F000         	goto	i2l1103
  1166   00004E                     i2l1091:
  1167                           
  1168                           ;InterrupcionM.c: 91:             n0=1;
  1169   00004E  0E00               	movlw	0
  1170   000050  6E16               	movwf	(_n0+1)^0,c
  1171   000052  0E01               	movlw	1
  1172   000054  6E15               	movwf	_n0^0,c
  1173                           
  1174                           ;InterrupcionM.c: 92:             n1=0;
  1175   000056  0E00               	movlw	0
  1176   000058  6E14               	movwf	(_n1+1)^0,c
  1177   00005A  0E00               	movlw	0
  1178   00005C  6E13               	movwf	_n1^0,c
  1179                           
  1180                           ;InterrupcionM.c: 93:             n2=0;
  1181   00005E  0E00               	movlw	0
  1182   000060  6E12               	movwf	(_n2+1)^0,c
  1183   000062  0E00               	movlw	0
  1184   000064  6E11               	movwf	_n2^0,c
  1185                           
  1186                           ;InterrupcionM.c: 94:             n3=0;
  1187   000066  0E00               	movlw	0
  1188   000068  6E10               	movwf	(_n3+1)^0,c
  1189   00006A  0E00               	movlw	0
  1190   00006C  6E0F               	movwf	_n3^0,c
  1191                           
  1192                           ;InterrupcionM.c: 95:             break;
  1193   00006E  EF9F  F000         	goto	i2l91
  1194   000072                     i2l1093:
  1195                           
  1196                           ;InterrupcionM.c: 98:             n0=0;
  1197   000072  0E00               	movlw	0
  1198   000074  6E16               	movwf	(_n0+1)^0,c
  1199   000076  0E00               	movlw	0
  1200   000078  6E15               	movwf	_n0^0,c
  1201                           
  1202                           ;InterrupcionM.c: 99:             n1=1;
  1203   00007A  0E00               	movlw	0
  1204   00007C  6E14               	movwf	(_n1+1)^0,c
  1205   00007E  0E01               	movlw	1
  1206   000080  6E13               	movwf	_n1^0,c
  1207                           
  1208                           ;InterrupcionM.c: 100:             n2=0;
  1209   000082  0E00               	movlw	0
  1210   000084  6E12               	movwf	(_n2+1)^0,c
  1211   000086  0E00               	movlw	0
  1212   000088  6E11               	movwf	_n2^0,c
  1213                           
  1214                           ;InterrupcionM.c: 101:             n3=0;
  1215   00008A  0E00               	movlw	0
  1216   00008C  6E10               	movwf	(_n3+1)^0,c
  1217   00008E  0E00               	movlw	0
  1218   000090  6E0F               	movwf	_n3^0,c
  1219                           
  1220                           ;InterrupcionM.c: 102:             break;
  1221   000092  EF9F  F000         	goto	i2l91
  1222   000096                     i2l1095:
  1223                           
  1224                           ;InterrupcionM.c: 105:             n0=0;
  1225   000096  0E00               	movlw	0
  1226   000098  6E16               	movwf	(_n0+1)^0,c
  1227   00009A  0E00               	movlw	0
  1228   00009C  6E15               	movwf	_n0^0,c
  1229                           
  1230                           ;InterrupcionM.c: 106:             n1=0;
  1231   00009E  0E00               	movlw	0
  1232   0000A0  6E14               	movwf	(_n1+1)^0,c
  1233   0000A2  0E00               	movlw	0
  1234   0000A4  6E13               	movwf	_n1^0,c
  1235                           
  1236                           ;InterrupcionM.c: 107:             n2=1;
  1237   0000A6  0E00               	movlw	0
  1238   0000A8  6E12               	movwf	(_n2+1)^0,c
  1239   0000AA  0E01               	movlw	1
  1240   0000AC  6E11               	movwf	_n2^0,c
  1241                           
  1242                           ;InterrupcionM.c: 108:             n3=0;
  1243   0000AE  0E00               	movlw	0
  1244   0000B0  6E10               	movwf	(_n3+1)^0,c
  1245   0000B2  0E00               	movlw	0
  1246   0000B4  6E0F               	movwf	_n3^0,c
  1247                           
  1248                           ;InterrupcionM.c: 109:             break;
  1249   0000B6  EF9F  F000         	goto	i2l91
  1250   0000BA                     i2l1097:
  1251                           
  1252                           ;InterrupcionM.c: 112:             n0=0;
  1253   0000BA  0E00               	movlw	0
  1254   0000BC  6E16               	movwf	(_n0+1)^0,c
  1255   0000BE  0E00               	movlw	0
  1256   0000C0  6E15               	movwf	_n0^0,c
  1257                           
  1258                           ;InterrupcionM.c: 113:             n1=0;
  1259   0000C2  0E00               	movlw	0
  1260   0000C4  6E14               	movwf	(_n1+1)^0,c
  1261   0000C6  0E00               	movlw	0
  1262   0000C8  6E13               	movwf	_n1^0,c
  1263                           
  1264                           ;InterrupcionM.c: 114:             n2=0;
  1265   0000CA  0E00               	movlw	0
  1266   0000CC  6E12               	movwf	(_n2+1)^0,c
  1267   0000CE  0E00               	movlw	0
  1268   0000D0  6E11               	movwf	_n2^0,c
  1269                           
  1270                           ;InterrupcionM.c: 115:             n3=1;
  1271   0000D2  0E00               	movlw	0
  1272   0000D4  6E10               	movwf	(_n3+1)^0,c
  1273   0000D6  0E01               	movlw	1
  1274   0000D8  6E0F               	movwf	_n3^0,c
  1275                           
  1276                           ;InterrupcionM.c: 116:             break;
  1277   0000DA  EF9F  F000         	goto	i2l91
  1278   0000DE                     i2l1099:
  1279                           
  1280                           ;InterrupcionM.c: 119:             n0=0;
  1281   0000DE  0E00               	movlw	0
  1282   0000E0  6E16               	movwf	(_n0+1)^0,c
  1283   0000E2  0E00               	movlw	0
  1284   0000E4  6E15               	movwf	_n0^0,c
  1285                           
  1286                           ;InterrupcionM.c: 120:             n1=0;
  1287   0000E6  0E00               	movlw	0
  1288   0000E8  6E14               	movwf	(_n1+1)^0,c
  1289   0000EA  0E00               	movlw	0
  1290   0000EC  6E13               	movwf	_n1^0,c
  1291                           
  1292                           ;InterrupcionM.c: 121:             n2=0;
  1293   0000EE  0E00               	movlw	0
  1294   0000F0  6E12               	movwf	(_n2+1)^0,c
  1295   0000F2  0E00               	movlw	0
  1296   0000F4  6E11               	movwf	_n2^0,c
  1297                           
  1298                           ;InterrupcionM.c: 122:             n3=0;
  1299   0000F6  0E00               	movlw	0
  1300   0000F8  6E10               	movwf	(_n3+1)^0,c
  1301   0000FA  0E00               	movlw	0
  1302   0000FC  6E0F               	movwf	_n3^0,c
  1303                           
  1304                           ;InterrupcionM.c: 123:             break;
  1305   0000FE  EF9F  F000         	goto	i2l91
  1306   000102                     i2l1103:
  1307   000102  C019  F01B         	movff	cambia@dato,??_cambia
  1308   000106  C01A  F01C         	movff	cambia@dato+1,??_cambia+1
  1309                           
  1310                           ; Switch on 2 bytes has been partitioned into a top level switch of size 1, and 1 sub-sw
      +                          itches
  1311                           ; Switch size 1, requested type "simple"
  1312                           ; Number of cases is 1, Range of values is 0 to 0
  1313                           ; switch strategies available:
  1314                           ; Name         Instructions Cycles
  1315                           ; simple_byte            4     3 (average)
  1316                           ;	Chosen strategy is simple_byte
  1317   00010A  501C               	movf	(??_cambia+1)^0,w,c
  1318   00010C  0A00               	xorlw	0	; case 0
  1319   00010E  B4D8               	btfsc	status,2,c
  1320   000110  EF8C  F000         	goto	i2l1233
  1321   000114  EF6F  F000         	goto	i2l1099
  1322   000118                     i2l1233:
  1323                           
  1324                           ; Switch size 1, requested type "simple"
  1325                           ; Number of cases is 4, Range of values is 16 to 128
  1326                           ; switch strategies available:
  1327                           ; Name         Instructions Cycles
  1328                           ; simple_byte           13     7 (average)
  1329                           ;	Chosen strategy is simple_byte
  1330   000118  501B               	movf	??_cambia^0,w,c
  1331   00011A  0A10               	xorlw	16	; case 16
  1332   00011C  B4D8               	btfsc	status,2,c
  1333   00011E  EF5D  F000         	goto	i2l1097
  1334   000122  0A30               	xorlw	48	; case 32
  1335   000124  B4D8               	btfsc	status,2,c
  1336   000126  EF4B  F000         	goto	i2l1095
  1337   00012A  0A60               	xorlw	96	; case 64
  1338   00012C  B4D8               	btfsc	status,2,c
  1339   00012E  EF39  F000         	goto	i2l1093
  1340   000132  0AC0               	xorlw	192	; case 128
  1341   000134  B4D8               	btfsc	status,2,c
  1342   000136  EF27  F000         	goto	i2l1091
  1343   00013A  EF6F  F000         	goto	i2l1099
  1344   00013E                     i2l91:
  1345   00013E  0012               	return		;funcret
  1346   000140                     __end_of_cambia:
  1347                           	callstack 0
  1348   000000                     
  1349                           	psect	rparam
  1350   000000                     
  1351                           	psect	temp
  1352   000021                     btemp:
  1353                           	callstack 0
  1354   000021                     	ds	1
  1355   000000                     int$flags	set	btemp
  1356   000000                     wtemp8	set	btemp+1
  1357   000000                     ttemp5	set	btemp+1
  1358   000000                     ttemp6	set	btemp+4
  1359   000000                     ttemp7	set	btemp+8
  1360                           
  1361                           	psect	idloc
  1362                           
  1363                           ;Config register IDLOC0 @ 0x200000
  1364                           ;	unspecified, using default values
  1365   200000                     	org	2097152
  1366   200000  FF                 	db	255
  1367                           
  1368                           ;Config register IDLOC1 @ 0x200001
  1369                           ;	unspecified, using default values
  1370   200001                     	org	2097153
  1371   200001  FF                 	db	255
  1372                           
  1373                           ;Config register IDLOC2 @ 0x200002
  1374                           ;	unspecified, using default values
  1375   200002                     	org	2097154
  1376   200002  FF                 	db	255
  1377                           
  1378                           ;Config register IDLOC3 @ 0x200003
  1379                           ;	unspecified, using default values
  1380   200003                     	org	2097155
  1381   200003  FF                 	db	255
  1382                           
  1383                           ;Config register IDLOC4 @ 0x200004
  1384                           ;	unspecified, using default values
  1385   200004                     	org	2097156
  1386   200004  FF                 	db	255
  1387                           
  1388                           ;Config register IDLOC5 @ 0x200005
  1389                           ;	unspecified, using default values
  1390   200005                     	org	2097157
  1391   200005  FF                 	db	255
  1392                           
  1393                           ;Config register IDLOC6 @ 0x200006
  1394                           ;	unspecified, using default values
  1395   200006                     	org	2097158
  1396   200006  FF                 	db	255
  1397                           
  1398                           ;Config register IDLOC7 @ 0x200007
  1399                           ;	unspecified, using default values
  1400   200007                     	org	2097159
  1401   200007  FF                 	db	255
  1402                           
  1403                           	psect	config
  1404                           
  1405                           ; Padding undefined space
  1406   300000                     	org	3145728
  1407   300000  FF                 	db	255
  1408                           
  1409                           ;Config register CONFIG1H @ 0x300001
  1410                           ;	Oscillator Selection bits
  1411                           ;	FOSC = HSHP, HS oscillator (high power > 16 MHz)
  1412                           ;	4X PLL Enable
  1413                           ;	PLLCFG = 0x0, unprogrammed default
  1414                           ;	Primary clock enable bit
  1415                           ;	PRICLKEN = 0x1, unprogrammed default
  1416                           ;	Fail-Safe Clock Monitor Enable bit
  1417                           ;	FCMEN = 0x0, unprogrammed default
  1418                           ;	Internal/External Oscillator Switchover bit
  1419                           ;	IESO = 0x0, unprogrammed default
  1420   300001                     	org	3145729
  1421   300001  22                 	db	34
  1422                           
  1423                           ;Config register CONFIG2L @ 0x300002
  1424                           ;	Power-up Timer Enable bit
  1425                           ;	PWRTEN = ON, Power up timer enabled
  1426                           ;	Brown-out Reset Enable bits
  1427                           ;	BOREN = 0x3, unprogrammed default
  1428                           ;	Brown Out Reset Voltage bits
  1429                           ;	BORV = 0x3, unprogrammed default
  1430   300002                     	org	3145730
  1431   300002  1E                 	db	30
  1432                           
  1433                           ;Config register CONFIG2H @ 0x300003
  1434                           ;	Watchdog Timer Enable bits
  1435                           ;	WDTEN = OFF, Watch dog timer is always disabled. SWDTEN has no effect.
  1436                           ;	Watchdog Timer Postscale Select bits
  1437                           ;	WDTPS = 0xF, unprogrammed default
  1438   300003                     	org	3145731
  1439   300003  3C                 	db	60
  1440                           
  1441                           ; Padding undefined space
  1442   300004                     	org	3145732
  1443   300004  FF                 	db	255
  1444                           
  1445                           ;Config register CONFIG3H @ 0x300005
  1446                           ;	unspecified, using default values
  1447                           ;	CCP2 MUX bit
  1448                           ;	CCP2MX = 0x1, unprogrammed default
  1449                           ;	PORTB A/D Enable bit
  1450                           ;	PBADEN = 0x1, unprogrammed default
  1451                           ;	P3A/CCP3 Mux bit
  1452                           ;	CCP3MX = 0x1, unprogrammed default
  1453                           ;	HFINTOSC Fast Start-up
  1454                           ;	HFOFST = 0x1, unprogrammed default
  1455                           ;	Timer3 Clock input mux bit
  1456                           ;	T3CMX = 0x1, unprogrammed default
  1457                           ;	ECCP2 B output mux bit
  1458                           ;	P2BMX = 0x1, unprogrammed default
  1459                           ;	MCLR Pin Enable bit
  1460                           ;	MCLRE = 0x1, unprogrammed default
  1461   300005                     	org	3145733
  1462   300005  BF                 	db	191
  1463                           
  1464                           ;Config register CONFIG4L @ 0x300006
  1465                           ;	unspecified, using default values
  1466                           ;	Stack Full/Underflow Reset Enable bit
  1467                           ;	STVREN = 0x1, unprogrammed default
  1468                           ;	Single-Supply ICSP Enable bit
  1469                           ;	LVP = 0x1, unprogrammed default
  1470                           ;	Extended Instruction Set Enable bit
  1471                           ;	XINST = 0x0, unprogrammed default
  1472                           ;	Background Debug
  1473                           ;	DEBUG = 0x1, unprogrammed default
  1474   300006                     	org	3145734
  1475   300006  85                 	db	133
  1476                           
  1477                           ; Padding undefined space
  1478   300007                     	org	3145735
  1479   300007  FF                 	db	255
  1480                           
  1481                           ;Config register CONFIG5L @ 0x300008
  1482                           ;	unspecified, using default values
  1483                           ;	Code Protection Block 0
  1484                           ;	CP0 = 0x1, unprogrammed default
  1485                           ;	Code Protection Block 1
  1486                           ;	CP1 = 0x1, unprogrammed default
  1487                           ;	Code Protection Block 2
  1488                           ;	CP2 = 0x1, unprogrammed default
  1489                           ;	Code Protection Block 3
  1490                           ;	CP3 = 0x1, unprogrammed default
  1491   300008                     	org	3145736
  1492   300008  0F                 	db	15
  1493                           
  1494                           ;Config register CONFIG5H @ 0x300009
  1495                           ;	unspecified, using default values
  1496                           ;	Boot Block Code Protection bit
  1497                           ;	CPB = 0x1, unprogrammed default
  1498                           ;	Data EEPROM Code Protection bit
  1499                           ;	CPD = 0x1, unprogrammed default
  1500   300009                     	org	3145737
  1501   300009  C0                 	db	192
  1502                           
  1503                           ;Config register CONFIG6L @ 0x30000A
  1504                           ;	unspecified, using default values
  1505                           ;	Write Protection Block 0
  1506                           ;	WRT0 = 0x1, unprogrammed default
  1507                           ;	Write Protection Block 1
  1508                           ;	WRT1 = 0x1, unprogrammed default
  1509                           ;	Write Protection Block 2
  1510                           ;	WRT2 = 0x1, unprogrammed default
  1511                           ;	Write Protection Block 3
  1512                           ;	WRT3 = 0x1, unprogrammed default
  1513   30000A                     	org	3145738
  1514   30000A  0F                 	db	15
  1515                           
  1516                           ;Config register CONFIG6H @ 0x30000B
  1517                           ;	unspecified, using default values
  1518                           ;	Configuration Register Write Protection bit
  1519                           ;	WRTC = 0x1, unprogrammed default
  1520                           ;	Boot Block Write Protection bit
  1521                           ;	WRTB = 0x1, unprogrammed default
  1522                           ;	Data EEPROM Write Protection bit
  1523                           ;	WRTD = 0x1, unprogrammed default
  1524   30000B                     	org	3145739
  1525   30000B  E0                 	db	224
  1526                           
  1527                           ;Config register CONFIG7L @ 0x30000C
  1528                           ;	unspecified, using default values
  1529                           ;	Table Read Protection Block 0
  1530                           ;	EBTR0 = 0x1, unprogrammed default
  1531                           ;	Table Read Protection Block 1
  1532                           ;	EBTR1 = 0x1, unprogrammed default
  1533                           ;	Table Read Protection Block 2
  1534                           ;	EBTR2 = 0x1, unprogrammed default
  1535                           ;	Table Read Protection Block 3
  1536                           ;	EBTR3 = 0x1, unprogrammed default
  1537   30000C                     	org	3145740
  1538   30000C  0F                 	db	15
  1539                           
  1540                           ;Config register CONFIG7H @ 0x30000D
  1541                           ;	unspecified, using default values
  1542                           ;	Boot Block Table Read Protection bit
  1543                           ;	EBTRB = 0x1, unprogrammed default
  1544   30000D                     	org	3145741
  1545   30000D  40                 	db	64
  1546                           tosu	equ	0xFFF
  1547                           tosh	equ	0xFFE
  1548                           tosl	equ	0xFFD
  1549                           stkptr	equ	0xFFC
  1550                           pclatu	equ	0xFFB
  1551                           pclath	equ	0xFFA
  1552                           pcl	equ	0xFF9
  1553                           tblptru	equ	0xFF8
  1554                           tblptrh	equ	0xFF7
  1555                           tblptrl	equ	0xFF6
  1556                           tablat	equ	0xFF5
  1557                           prodh	equ	0xFF4
  1558                           prodl	equ	0xFF3
  1559                           indf0	equ	0xFEF
  1560                           postinc0	equ	0xFEE
  1561                           postdec0	equ	0xFED
  1562                           preinc0	equ	0xFEC
  1563                           plusw0	equ	0xFEB
  1564                           fsr0h	equ	0xFEA
  1565                           fsr0l	equ	0xFE9
  1566                           wreg	equ	0xFE8
  1567                           indf1	equ	0xFE7
  1568                           postinc1	equ	0xFE6
  1569                           postdec1	equ	0xFE5
  1570                           preinc1	equ	0xFE4
  1571                           plusw1	equ	0xFE3
  1572                           fsr1h	equ	0xFE2
  1573                           fsr1l	equ	0xFE1
  1574                           bsr	equ	0xFE0
  1575                           indf2	equ	0xFDF
  1576                           postinc2	equ	0xFDE
  1577                           postdec2	equ	0xFDD
  1578                           preinc2	equ	0xFDC
  1579                           plusw2	equ	0xFDB
  1580                           fsr2h	equ	0xFDA
  1581                           fsr2l	equ	0xFD9
  1582                           status	equ	0xFD8

Data Sizes:
    Strings     0
    Constant    0
    Data        14
    BSS         10
    Persistent  0
    Stack       0

Auto Spaces:
    Space          Size  Autos    Used
    COMRAM           94      8      32
    BANK0           160      0       0
    BANK1           256      0       0
    BANK2           256      0       0
    BANK3           256      0       0
    BANK4           256      0       0
    BANK5           256      0       0
    BANK6           256      0       0
    BANK7           256      0       0
    BANK8           256      0       0
    BANK9           256      0       0
    BANK10          256      0       0
    BANK11          256      0       0
    BANK12          256      0       0
    BANK13          256      0       0
    BANK14          256      0       0
    BANK15           56      0       0

Pointer List with Targets:

    None.

Critical Paths under _main in COMRAM

    _main->_display0
    _main->_display1
    _main->_display2
    _main->_display3

Critical Paths under _isr_general in COMRAM

    _isr_general->_cambia

Critical Paths under _main in BANK0

    None.

Critical Paths under _isr_general in BANK0

    None.

Critical Paths under _main in BANK1

    None.

Critical Paths under _isr_general in BANK1

    None.

Critical Paths under _main in BANK2

    None.

Critical Paths under _isr_general in BANK2

    None.

Critical Paths under _main in BANK3

    None.

Critical Paths under _isr_general in BANK3

    None.

Critical Paths under _main in BANK4

    None.

Critical Paths under _isr_general in BANK4

    None.

Critical Paths under _main in BANK5

    None.

Critical Paths under _isr_general in BANK5

    None.

Critical Paths under _main in BANK6

    None.

Critical Paths under _isr_general in BANK6

    None.

Critical Paths under _main in BANK7

    None.

Critical Paths under _isr_general in BANK7

    None.

Critical Paths under _main in BANK8

    None.

Critical Paths under _isr_general in BANK8

    None.

Critical Paths under _main in BANK9

    None.

Critical Paths under _isr_general in BANK9

    None.

Critical Paths under _main in BANK10

    None.

Critical Paths under _isr_general in BANK10

    None.

Critical Paths under _main in BANK11

    None.

Critical Paths under _isr_general in BANK11

    None.

Critical Paths under _main in BANK12

    None.

Critical Paths under _isr_general in BANK12

    None.

Critical Paths under _main in BANK13

    None.

Critical Paths under _isr_general in BANK13

    None.

Critical Paths under _main in BANK14

    None.

Critical Paths under _isr_general in BANK14

    None.

Critical Paths under _main in BANK15

    None.

Critical Paths under _isr_general in BANK15

    None.

Call Graph Tables:

 ---------------------------------------------------------------------------------
 (Depth) Function   	        Calls       Base Space   Used Autos Params    Refs
 ---------------------------------------------------------------------------------
 (0) _main                                                 0     0      0       0
                           _display0
                           _display1
                           _display2
                           _display3
 ---------------------------------------------------------------------------------
 (1) _display3                                             2     2      0       0
                                              6 COMRAM     2     2      0
 ---------------------------------------------------------------------------------
 (1) _display2                                             2     2      0       0
                                              6 COMRAM     2     2      0
 ---------------------------------------------------------------------------------
 (1) _display1                                             2     2      0       0
                                              6 COMRAM     2     2      0
 ---------------------------------------------------------------------------------
 (1) _display0                                             2     2      0       0
                                              6 COMRAM     2     2      0
 ---------------------------------------------------------------------------------
 Estimated maximum stack depth 1
 ---------------------------------------------------------------------------------
 (Depth) Function   	        Calls       Base Space   Used Autos Params    Refs
 ---------------------------------------------------------------------------------
 (2) _isr_general                                          2     2      0      98
                                              4 COMRAM     2     2      0
                             _cambia
 ---------------------------------------------------------------------------------
 (3) _cambia                                               4     2      2      98
                                              0 COMRAM     4     2      2
 ---------------------------------------------------------------------------------
 Estimated maximum stack depth 3
 ---------------------------------------------------------------------------------

 Call Graph Graphs:

 _main (ROOT)
   _display0
   _display1
   _display2
   _display3

 _isr_general (ROOT)
   _cambia

 Address spaces:
Name               Size   Autos  Total    Cost      Usage
BIGRAM             F37      0       0      44        0.0%
EEDATA             400      0       0       0        0.0%
BITBANK14          100      0       0      33        0.0%
BANK14             100      0       0      34        0.0%
BITBANK13          100      0       0      31        0.0%
BANK13             100      0       0      32        0.0%
BITBANK12          100      0       0      29        0.0%
BANK12             100      0       0      30        0.0%
BITBANK11          100      0       0      26        0.0%
BANK11             100      0       0      27        0.0%
BITBANK10          100      0       0      24        0.0%
BANK10             100      0       0      25        0.0%
BITBANK9           100      0       0      22        0.0%
BANK9              100      0       0      23        0.0%
BITBANK8           100      0       0      20        0.0%
BANK8              100      0       0      21        0.0%
BITBANK7           100      0       0      18        0.0%
BANK7              100      0       0      19        0.0%
BITBANK6           100      0       0      16        0.0%
BANK6              100      0       0      17        0.0%
BITBANK5           100      0       0      14        0.0%
BANK5              100      0       0      15        0.0%
BITBANK4           100      0       0      12        0.0%
BANK4              100      0       0      13        0.0%
BITBANK3           100      0       0      10        0.0%
BANK3              100      0       0      11        0.0%
BITBANK2           100      0       0       8        0.0%
BANK2              100      0       0       9        0.0%
BITBANK1           100      0       0       6        0.0%
BANK1              100      0       0       7        0.0%
BITBANK0            A0      0       0       4        0.0%
BANK0               A0      0       0       5        0.0%
BITCOMRAM           5E      0       0       0        0.0%
COMRAM              5E      8      20       1       34.0%
BITBIGSFRhl         5C      0       0      38        0.0%
BITBANK15           38      0       0      35        0.0%
BANK15              38      0       0      36        0.0%
BITBIGSFRlhl        28      0       0      42        0.0%
BITBIGSFRlhhl       1E      0       0      41        0.0%
BITBIGSFRhh          A      0       0      37        0.0%
BITBIGSFRlhhhl       9      0       0      40        0.0%
BITBIGSFRlhhhh       6      0       0      39        0.0%
BITBIGSFRll          1      0       0      43        0.0%
BIGSFR               0      0       0     200        0.0%
BITSFR_1             0      0       0     200        0.0%
SFR_1                0      0       0     200        0.0%
BITSFR               0      0       0     200        0.0%
SFR                  0      0       0     200        0.0%
STACK                0      0       0       2        0.0%
NULL                 0      0       0       0        0.0%
ABS                  0      0      20      28        0.0%
DATA                 0      0      20       3        0.0%
CODE                 0      0       0       0        0.0%


Microchip Technology PIC18 Macro Assembler V2.41 build 20230208172133 
Symbol Table                                                                                   Fri Apr 26 19:46:05 2024

                     _D0 0001                       _D1 0002                       _D2 0003  
                     _D3 0004                       u17 0382                       u27 020A  
                     u37 0426                       u47 02DE                       _n0 0015  
                     _n1 0013                       _n2 0011                       _n3 000F  
                    l106 02E6                      l133 0212                      l118 042E  
                    l145 038A                      l821 0214                      l831 023C  
                    l823 021C                      l903 0198                      l911 02E8  
                    l841 0264                      l833 0244                      l825 0224  
                    l905 0204                      l921 0310                      l913 02F0  
                    l835 024C                      l827 022C                      l923 0318  
                    l915 02F8                      l931 037C                      l837 0254  
                    l829 0234                      l845 026C                      l861 03AC  
                    l853 038C                      l925 0320                      l917 0300  
                    l839 025C                      l847 02D8                      l863 03B4  
                    l855 0394                      l871 03CC                      l919 0308  
                    l865 03BC                      l857 039C                      l873 0420  
                    l881 0148                      l929 0328                      l961 0482  
                    l867 03C4                      l859 03A4                      l891 0170  
                    l883 0150                      l971 0492                      l963 0484  
                    l893 0178                      l885 0158                      l965 0486  
                    l957 046A                      l895 0180                      l887 0160  
                    l879 0140                      l967 048A                      l959 0480  
                    l897 0188                      l889 0168                      l969 048E  
                    l899 0190                      _DOS 000C                      _UNO 000D  
                    wreg 0FE8                     l1231 0282                     l1225 033E  
                   l1227 01AE                     l1229 03E2                     _CERO 000E  
                   _IOCB 0F62                     _LATC 0F8B                     _LATD 0F8C  
                   _OCHO 0006                     i2l81 0042                     i2l91 013E  
                   _SEIS 0008                     _TRES 000B                     _dato 0017  
                   _main 046A                     fsr1l 0FE1                     btemp 0021  
                   start 0046             ___param_bank 0000                    ?_main 0019  
                  _CINCO 0009                    _SIETE 0007                    _NUEVE 0005  
                  _PORTB 0F81                    _TRISB 0F93                    _TRISC 0F94  
                  _TRISD 0F95                    tablat 0FF5                    ttemp5 0022  
                  ttemp6 0025                    ttemp7 0029                    status 0FD8  
                  wtemp8 0022          __initialization 0430             ?_isr_general 0019  
           __end_of_main 049E                   ??_main 0021            __activetblptr 0002  
                 _ANSELB 0F39                   _CUATRO 000A                   i2l1103 0102  
                 i2l1111 000E                   i2l1121 003C                   i2l1113 0014  
                 i2l1123 003E                   i2l1115 0016                   i2l1117 0018  
                 i2l1109 000A                   i2l1119 0030                   i2l1233 0118  
                 i2l1091 004E                   i2l1093 0072                   i2l1095 0096  
                 i2l1097 00BA                   i2l1089 004A                   i2l1099 00DE  
                 i2u5_47 0022         __end_of_display0 02E8         __end_of_display1 0430  
       __end_of_display2 0214         __end_of_display3 038C                   _cambia 004A  
                 clear_0 0456                   isa$std 0001             __pdataCOMRAM 0001  
                 tblptrh 0FF7                   tblptrl 0FF6                   tblptru 0FF8  
             __accesstop 0060  __end_of__initialization 045C            ___rparam_used 0001  
         __pcstackCOMRAM 0019                  ?_cambia 0019               cambia@dato 0019  
              ?_display0 0019                ?_display1 0019                ?_display2 0019  
              ?_display3 0019                  __Hparam 0000                  __Lparam 0000  
                __pcinit 0430                  __ramtop 1000                  __ptext0 046A  
                __ptext1 02E8                  __ptext2 0140                  __ptext3 038C  
                __ptext4 0214                  __ptext6 004A               ??_display0 001F  
             ??_display1 001F               ??_display2 001F               ??_display3 001F  
   end_of_initialization 045C            __Lmediumconst 0000                  postdec1 0FE5  
                postinc0 0FEE           __end_of_cambia 0140            __pidataCOMRAM 049E  
    start_initialization 0430                 ??_cambia 001B              __pbssCOMRAM 000F  
          ??_isr_general 001D                __pintcode 0008      __end_of_isr_general 0046  
              copy_data0 0444                 __Hrparam 0000                 __Lrparam 0000  
               _display0 0214                 _display1 038C                 _display2 0140  
               _display3 02E8              _isr_general 0008                 isa$xinst 0000  
               int$flags 0021               _INTCONbits 0FF2                 intlevel2 0000  
